; Function Attrs: mustprogress uwtable
define void @_ZNK2cv11_InputArray6copyToERKNS_12_OutputArrayERKS0_(ptr noundef nonnull readonly align 8 captures(none) dereferenceable(24) %0, ptr noundef nonnull align 8 dereferenceable(24) %1, ptr noundef nonnull align 8 dereferenceable(24) %2) local_unnamed_addr #0 align 2 personality ptr @__gxx_personality_v0 {
  %4 = alloca %"class.cv::Mat", align 8
  %5 = alloca %"class.std::__cxx11::basic_string", align 8
  %6 = alloca %"class.std::allocator", align 1
  %.val.i = load i32, ptr %0, align 8, !tbaa !3
  %7 = and i32 %.val.i, 2031616
  %8 = lshr exact i32 %7, 16
  switch i32 %8, label %22 [
    i32 0, label %9
    i32 12, label %10
    i32 3, label %10
    i32 2, label %10
    i32 1, label %10
    i32 10, label %19
  ]

9:                                                ; preds = %3
  tail call void @_ZNK2cv12_OutputArray7releaseEv(ptr noundef nonnull align 8 dereferenceable(24) %1)
  br label %35

10:                                               ; preds = %3, %3, %3, %3
  call void @llvm.lifetime.start.p0(i64 96, ptr nonnull %4) #17
  %11 = icmp eq i32 %7, 65536
  br i1 %11, label %12, label %15

12:                                               ; preds = %10
  %13 = getelementptr inbounds nuw i8, ptr %0, i64 8
  %14 = load ptr, ptr %13, align 8, !tbaa !7, !noalias !142
  call void @_ZN2cv3MatC1ERKS0_(ptr noundef nonnull align 8 dereferenceable(96) %4, ptr noundef nonnull align 8 dereferenceable(96) %14)
  br label %_ZNK2cv11_InputArray6getMatEi.exit

15:                                               ; preds = %10
  call void @_ZNK2cv11_InputArray7getMat_Ei(ptr dead_on_unwind nonnull writable sret(%"class.cv::Mat") align 8 %4, ptr noundef nonnull align 8 dereferenceable(24) %0, i32 noundef -1)
  br label %_ZNK2cv11_InputArray6getMatEi.exit

_ZNK2cv11_InputArray6getMatEi.exit:               ; preds = %12, %15
  invoke void @_ZNK2cv3Mat6copyToERKNS_12_OutputArrayERKNS_11_InputArrayE(ptr noundef nonnull align 8 dereferenceable(96) %4, ptr noundef nonnull align 8 dereferenceable(24) %1, ptr noundef nonnull align 8 dereferenceable(24) %2)
          to label %16 unwind label %17

16:                                               ; preds = %_ZNK2cv11_InputArray6getMatEi.exit
  call void @_ZN2cv3MatD1Ev(ptr noundef nonnull align 8 dereferenceable(96) %4) #17
  call void @llvm.lifetime.end.p0(i64 96, ptr nonnull %4) #17
  br label %35

17:                                               ; preds = %_ZNK2cv11_InputArray6getMatEi.exit
  %18 = landingpad { ptr, i32 }
          cleanup
  call void @_ZN2cv3MatD1Ev(ptr noundef nonnull align 8 dereferenceable(96) %4) #17
  call void @llvm.lifetime.end.p0(i64 96, ptr nonnull %4) #17
  br label %36

19:                                               ; preds = %3
  %20 = getelementptr inbounds nuw i8, ptr %0, i64 8
  %21 = load ptr, ptr %20, align 8, !tbaa !7
  tail call void @_ZNK2cv4UMat6copyToERKNS_12_OutputArrayERKNS_11_InputArrayE(ptr noundef nonnull align 8 dereferenceable(80) %21, ptr noundef nonnull align 8 dereferenceable(24) %1, ptr noundef nonnull align 8 dereferenceable(24) %2)
  br label %35

22:                                               ; preds = %3
  call void @llvm.lifetime.start.p0(i64 32, ptr nonnull %5) #17
  call void @llvm.lifetime.start.p0(i64 1, ptr nonnull %6) #17
  invoke void @_ZNSt7__cxx1112basic_stringIcSt11char_traitsIcESaIcEEC2EPKcRKS3_(ptr noundef nonnull align 8 dereferenceable(32) %5, ptr noundef nonnull @.str.19, ptr noundef nonnull align 1 dereferenceable(1) %6)
          to label %23 unwind label %25

23:                                               ; preds = %22
  invoke void @_ZN2cv5errorEiRKNSt7__cxx1112basic_stringIcSt11char_traitsIcESaIcEEEPKcS9_i(i32 noundef -213, ptr noundef nonnull align 8 dereferenceable(32) %5, ptr noundef nonnull @__func__._ZNK2cv11_InputArray6copyToERKNS_12_OutputArrayE, ptr noundef nonnull @.str.1, i32 noundef 1147) #18
          to label %24 unwind label %27

24:                                               ; preds = %23
  unreachable

25:                                               ; preds = %22
  %26 = landingpad { ptr, i32 }
          cleanup
  br label %_ZNSt7__cxx1112basic_stringIcSt11char_traitsIcESaIcEED2Ev.exit

27:                                               ; preds = %23
  %28 = landingpad { ptr, i32 }
          cleanup
  %29 = load ptr, ptr %5, align 8, !tbaa !20
  %30 = getelementptr inbounds nuw i8, ptr %5, i64 16
  %31 = icmp eq ptr %29, %30
  br i1 %31, label %_ZNKSt7__cxx1112basic_stringIcSt11char_traitsIcESaIcEE11_M_is_localEv.exit.thread.i.i, label %_ZNKSt7__cxx1112basic_stringIcSt11char_traitsIcESaIcEE11_M_is_localEv.exit.i.i

_ZNKSt7__cxx1112basic_stringIcSt11char_traitsIcESaIcEE11_M_is_localEv.exit.thread.i.i: ; preds = %27
  %32 = getelementptr inbounds nuw i8, ptr %5, i64 8
  %33 = load i64, ptr %32, align 8, !tbaa !25
  %34 = icmp ult i64 %33, 16
  call void @llvm.assume(i1 %34)
  br label %_ZNSt7__cxx1112basic_stringIcSt11char_traitsIcESaIcEED2Ev.exit

_ZNKSt7__cxx1112basic_stringIcSt11char_traitsIcESaIcEE11_M_is_localEv.exit.i.i: ; preds = %27
  call void @_ZdlPv(ptr noundef %29) #19
  br label %_ZNSt7__cxx1112basic_stringIcSt11char_traitsIcESaIcEED2Ev.exit

_ZNSt7__cxx1112basic_stringIcSt11char_traitsIcESaIcEED2Ev.exit: ; preds = %_ZNKSt7__cxx1112basic_stringIcSt11char_traitsIcESaIcEE11_M_is_localEv.exit.i.i, %_ZNKSt7__cxx1112basic_stringIcSt11char_traitsIcESaIcEE11_M_is_localEv.exit.thread.i.i, %25
  %.pn = phi { ptr, i32 } [ %26, %25 ], [ %28, %_ZNKSt7__cxx1112basic_stringIcSt11char_traitsIcESaIcEE11_M_is_localEv.exit.thread.i.i ], [ %28, %_ZNKSt7__cxx1112basic_stringIcSt11char_traitsIcESaIcEE11_M_is_localEv.exit.i.i ]
  call void @llvm.lifetime.end.p0(i64 1, ptr nonnull %6) #17
  call void @llvm.lifetime.end.p0(i64 32, ptr nonnull %5) #17
  br label %36

35:                                               ; preds = %16, %19, %9
  ret void

36:                                               ; preds = %_ZNSt7__cxx1112basic_stringIcSt11char_traitsIcESaIcEED2Ev.exit, %17
  %.pn22 = phi { ptr, i32 } [ %18, %17 ], [ %.pn, %_ZNSt7__cxx1112basic_stringIcSt11char_traitsIcESaIcEED2Ev.exit ]
  resume { ptr, i32 } %.pn22
}